; Function Attrs: mustprogress nounwind uwtable
define hidden void @_ZN7VMError17print_stack_traceEP12outputStreamP10JavaThreadPcib(ptr noundef %0, ptr noundef %1, ptr noundef %2, i32 noundef %3, i1 noundef zeroext %4) local_unnamed_addr #0 align 2 {
  %6 = alloca %class.frame, align 8
  %7 = alloca %class.StackFrameStream, align 8
  %8 = getelementptr inbounds i8, ptr %1, i64 928
  %9 = load volatile ptr, ptr %8, align 8
  %.not = icmp eq ptr %9, null
  br i1 %.not, label %_ZN16StackFrameStream7is_doneEv.exit.thread, label %10

10:                                               ; preds = %5
  tail call void (ptr, ptr, ...) @_ZN12outputStream8print_crEPKcz(ptr noundef nonnull align 8 dereferenceable(56) %0, ptr noundef nonnull @.str.10) #21
  call void @_ZN16StackFrameStreamC1EP10JavaThreadbbb(ptr noundef nonnull align 8 dereferenceable(5041) %7, ptr noundef nonnull %1, i1 noundef zeroext true, i1 noundef zeroext true, i1 noundef zeroext false) #21
  %11 = getelementptr inbounds i8, ptr %7, i64 5040
  %12 = load i8, ptr %11, align 8
  %13 = trunc i8 %12 to i1
  br i1 %13, label %_ZN16StackFrameStream7is_doneEv.exit.thread, label %.lr.ph

.lr.ph:                                           ; preds = %10
  %14 = getelementptr inbounds i8, ptr %7, i64 8
  %15 = getelementptr inbounds i8, ptr %7, i64 16
  %16 = getelementptr inbounds i8, ptr %7, i64 56
  %17 = getelementptr inbounds i8, ptr %7, i64 5037
  %18 = getelementptr inbounds i8, ptr %7, i64 5024
  %19 = getelementptr inbounds i8, ptr %7, i64 5016
  br label %20

20:                                               ; preds = %.lr.ph, %_ZN16StackFrameStream4nextEv.exit
  %21 = load ptr, ptr %14, align 8
  %22 = load ptr, ptr @_ZN12StubRoutines25_call_stub_return_addressE, align 8
  %23 = icmp eq ptr %22, %21
  br i1 %23, label %24, label %26

24:                                               ; preds = %20
  %25 = call noundef zeroext i1 @_ZNK5frame20entry_frame_is_firstEv(ptr noundef nonnull align 8 dereferenceable(56) %7) #21
  br i1 %25, label %34, label %26

26:                                               ; preds = %24, %20
  %27 = load ptr, ptr %15, align 8
  %.not.i.i.i = icmp eq ptr %27, null
  br i1 %.not.i.i.i, label %34, label %_ZNK5frame20is_upcall_stub_frameEv.exit.i.i

_ZNK5frame20is_upcall_stub_frameEv.exit.i.i:      ; preds = %26
  %28 = getelementptr inbounds i8, ptr %27, i64 52
  %29 = load i8, ptr %28, align 4
  %30 = icmp eq i8 %29, 11
  br i1 %30, label %31, label %34

31:                                               ; preds = %_ZNK5frame20is_upcall_stub_frameEv.exit.i.i
  %32 = call noundef zeroext i1 @_ZNK5frame26upcall_stub_frame_is_firstEv(ptr noundef nonnull align 8 dereferenceable(56) %7) #21
  %33 = zext i1 %32 to i8
  br label %34

34:                                               ; preds = %31, %_ZNK5frame20is_upcall_stub_frameEv.exit.i.i, %26, %24
  %35 = phi i8 [ 1, %24 ], [ 0, %_ZNK5frame20is_upcall_stub_frameEv.exit.i.i ], [ %33, %31 ], [ 0, %26 ]
  store i8 %35, ptr %11, align 8
  call void @_ZNK5frame14print_on_errorEP12outputStreamPcib(ptr noundef nonnull align 8 dereferenceable(56) %7, ptr noundef nonnull %0, ptr noundef %2, i32 noundef %3, i1 noundef zeroext %4) #21
  call void @_ZN12outputStream2crEv(ptr noundef nonnull align 8 dereferenceable(56) %0) #21
  call void @llvm.lifetime.start.p0(i64 56, ptr nonnull %6)
  %36 = load i8, ptr %11, align 8
  %37 = trunc i8 %36 to i1
  br i1 %37, label %_ZN16StackFrameStream4nextEv.exit, label %38

38:                                               ; preds = %34
  call void @_ZNK5frame10sender_rawEP11RegisterMap(ptr dead_on_unwind nonnull writable sret(%class.frame) align 8 %6, ptr noundef nonnull align 8 dereferenceable(56) %7, ptr noundef nonnull %16)
  %39 = load i8, ptr %17, align 1, !noalias !6
  %40 = trunc i8 %39 to i1
  br i1 %40, label %41, label %_ZNK5frame6senderEP11RegisterMap.exit.i

41:                                               ; preds = %38
  %42 = load ptr, ptr %18, align 8, !noalias !6
  %43 = icmp eq ptr %42, null
  br i1 %43, label %_ZNK11RegisterMap7in_contEv.exit.thread.i.i, label %_ZNK11RegisterMap7in_contEv.exit.i.i

_ZNK11RegisterMap7in_contEv.exit.i.i:             ; preds = %41
  %44 = load ptr, ptr %42, align 8
  %.not.i.i = icmp eq ptr %44, null
  br i1 %.not.i.i, label %_ZNK11RegisterMap7in_contEv.exit.thread.i.i, label %_ZNK5frame6senderEP11RegisterMap.exit.i

_ZNK11RegisterMap7in_contEv.exit.thread.i.i:      ; preds = %_ZNK11RegisterMap7in_contEv.exit.i.i, %41
  %45 = load ptr, ptr %19, align 8, !noalias !6
  call void @_ZN17StackWatermarkSet12on_iterationEP10JavaThreadRK5frame(ptr noundef %45, ptr noundef nonnull align 8 dereferenceable(56) %6) #21
  br label %_ZNK5frame6senderEP11RegisterMap.exit.i

_ZNK5frame6senderEP11RegisterMap.exit.i:          ; preds = %_ZNK11RegisterMap7in_contEv.exit.thread.i.i, %_ZNK11RegisterMap7in_contEv.exit.i.i, %38
  call void @llvm.memcpy.p0.p0.i64(ptr noundef nonnull align 8 dereferenceable(56) %7, ptr noundef nonnull align 8 dereferenceable(56) %6, i64 56, i1 false)
  %.pre = load i8, ptr %11, align 8
  br label %_ZN16StackFrameStream4nextEv.exit

_ZN16StackFrameStream4nextEv.exit:                ; preds = %34, %_ZNK5frame6senderEP11RegisterMap.exit.i
  %46 = phi i8 [ %36, %34 ], [ %.pre, %_ZNK5frame6senderEP11RegisterMap.exit.i ]
  call void @llvm.lifetime.end.p0(i64 56, ptr nonnull %6)
  %47 = trunc i8 %46 to i1
  br i1 %47, label %_ZN16StackFrameStream7is_doneEv.exit.thread, label %20, !llvm.loop !9

_ZN16StackFrameStream7is_doneEv.exit.thread:      ; preds = %_ZN16StackFrameStream4nextEv.exit, %10, %5
  ret void
}